target datalayout = "e-m:e-p270:32:32-p271:32:32-p272:64:64-i64:64-i128:128-f80:128-n8:16:32:64-S128"
target triple = "x86_64-pc-linux-gnu"

%class.State = type { [315 x i32], [315 x i16], i32, ptr, [2 x ptr] }

@UseAVX = external global i32, align 4

; Function Attrs: mustprogress nounwind uwtable
define hidden void @_ZN5State12_sub_Op_MinFEPK4Node(ptr noundef nonnull align 8 dereferenceable(1920) %0, ptr noundef %1) #1 align 2 {
  %3 = alloca ptr, align 8
  %4 = alloca ptr, align 8
  %5 = alloca i32, align 4
  %6 = alloca i32, align 4
  store ptr %0, ptr %3, align 8
  store ptr %1, ptr %4, align 8
  %7 = load ptr, ptr %3, align 8
  %8 = getelementptr inbounds %class.State, ptr %7, i32 0, i32 4
  %9 = getelementptr inbounds [2 x ptr], ptr %8, i64 0, i64 0
  %10 = load ptr, ptr %9, align 8
  %11 = icmp ne ptr %10, null
  br i1 %11, label %12, label %83

12:                                               ; preds = %2
  %13 = getelementptr inbounds %class.State, ptr %7, i32 0, i32 4
  %14 = getelementptr inbounds [2 x ptr], ptr %13, i64 0, i64 0
  %15 = load ptr, ptr %14, align 8
  %16 = getelementptr inbounds %class.State, ptr %15, i32 0, i32 1
  %17 = getelementptr inbounds [315 x i16], ptr %16, i64 0, i64 79
  %18 = load i16, ptr %17, align 2
  %19 = zext i16 %18 to i32
  %20 = and i32 %19, 1
  %21 = icmp ne i32 %20, 0
  br i1 %21, label %22, label %83

22:                                               ; preds = %12
  %23 = getelementptr inbounds %class.State, ptr %7, i32 0, i32 4
  %24 = getelementptr inbounds [2 x ptr], ptr %23, i64 0, i64 1
  %25 = load ptr, ptr %24, align 8
  %26 = icmp ne ptr %25, null
  br i1 %26, label %27, label %83

27:                                               ; preds = %22
  %28 = getelementptr inbounds %class.State, ptr %7, i32 0, i32 4
  %29 = getelementptr inbounds [2 x ptr], ptr %28, i64 0, i64 1
  %30 = load ptr, ptr %29, align 8
  %31 = getelementptr inbounds %class.State, ptr %30, i32 0, i32 1
  %32 = getelementptr inbounds [315 x i16], ptr %31, i64 0, i64 79
  %33 = load i16, ptr %32, align 2
  %34 = zext i16 %33 to i32
  %35 = and i32 %34, 1
  %36 = icmp ne i32 %35, 0
  br i1 %36, label %37, label %83

37:                                               ; preds = %27
  %38 = load i32, ptr @UseAVX, align 4
  %39 = icmp sgt i32 %38, 0
  br i1 %39, label %40, label %83

40:                                               ; preds = %37
  %41 = load ptr, ptr %4, align 8
  %42 = call noundef zeroext i1 @_ZN15VLoopReductions12is_reductionEPK4Node(ptr noundef %41)
  br i1 %42, label %43, label %83

43:                                               ; preds = %40
  %44 = getelementptr inbounds %class.State, ptr %7, i32 0, i32 4
  %45 = getelementptr inbounds [2 x ptr], ptr %44, i64 0, i64 0
  %46 = load ptr, ptr %45, align 8
  %47 = getelementptr inbounds %class.State, ptr %46, i32 0, i32 0
  %48 = getelementptr inbounds [315 x i32], ptr %47, i64 0, i64 79
  %49 = load i32, ptr %48, align 4
  %50 = getelementptr inbounds %class.State, ptr %7, i32 0, i32 4
  %51 = getelementptr inbounds [2 x ptr], ptr %50, i64 0, i64 1
  %52 = load ptr, ptr %51, align 8
  %53 = getelementptr inbounds %class.State, ptr %52, i32 0, i32 0
  %54 = getelementptr inbounds [315 x i32], ptr %53, i64 0, i64 79
  %55 = load i32, ptr %54, align 4
  %56 = add i32 %49, %55
  %57 = add i32 %56, 100
  store i32 %57, ptr %5, align 4
  %58 = load i32, ptr %5, align 4
  %59 = getelementptr inbounds %class.State, ptr %7, i32 0, i32 0
  %60 = getelementptr inbounds [315 x i32], ptr %59, i64 0, i64 79
  store i32 %58, ptr %60, align 4
  %61 = getelementptr inbounds %class.State, ptr %7, i32 0, i32 1
  %62 = getelementptr inbounds [315 x i16], ptr %61, i64 0, i64 79
  store i16 1171, ptr %62, align 2
  %63 = load i32, ptr %5, align 4
  %64 = add i32 %63, 100
  %65 = getelementptr inbounds %class.State, ptr %7, i32 0, i32 0
  %66 = getelementptr inbounds [315 x i32], ptr %65, i64 0, i64 78
  store i32 %64, ptr %66, align 8
  %67 = getelementptr inbounds %class.State, ptr %7, i32 0, i32 1
  %68 = getelementptr inbounds [315 x i16], ptr %67, i64 0, i64 78
  store i16 647, ptr %68, align 4
  %69 = load i32, ptr %5, align 4
  %70 = add i32 %69, 100
  %71 = add i32 %70, 100
  %72 = getelementptr inbounds %class.State, ptr %7, i32 0, i32 0
  %73 = getelementptr inbounds [315 x i32], ptr %72, i64 0, i64 80
  store i32 %71, ptr %73, align 8
  %74 = getelementptr inbounds %class.State, ptr %7, i32 0, i32 1
  %75 = getelementptr inbounds [315 x i16], ptr %74, i64 0, i64 80
  store i16 641, ptr %75, align 4
  %76 = load i32, ptr %5, align 4
  %77 = add i32 %76, 100
  %78 = add i32 %77, 95
  %79 = getelementptr inbounds %class.State, ptr %7, i32 0, i32 0
  %80 = getelementptr inbounds [315 x i32], ptr %79, i64 0, i64 106
  store i32 %78, ptr %80, align 8
  %81 = getelementptr inbounds %class.State, ptr %7, i32 0, i32 1
  %82 = getelementptr inbounds [315 x i16], ptr %81, i64 0, i64 106
  store i16 637, ptr %82, align 4
  br label %83

83:                                               ; preds = %43, %40, %37, %27, %22, %12, %2
  %84 = getelementptr inbounds %class.State, ptr %7, i32 0, i32 4
  %85 = getelementptr inbounds [2 x ptr], ptr %84, i64 0, i64 0
  %86 = load ptr, ptr %85, align 8
  %87 = icmp ne ptr %86, null
  br i1 %87, label %88, label %220

88:                                               ; preds = %83
  %89 = getelementptr inbounds %class.State, ptr %7, i32 0, i32 4
  %90 = getelementptr inbounds [2 x ptr], ptr %89, i64 0, i64 0
  %91 = load ptr, ptr %90, align 8
  %92 = getelementptr inbounds %class.State, ptr %91, i32 0, i32 1
  %93 = getelementptr inbounds [315 x i16], ptr %92, i64 0, i64 79
  %94 = load i16, ptr %93, align 2
  %95 = zext i16 %94 to i32
  %96 = and i32 %95, 1
  %97 = icmp ne i32 %96, 0
  br i1 %97, label %98, label %220

98:                                               ; preds = %88
  %99 = getelementptr inbounds %class.State, ptr %7, i32 0, i32 4
  %100 = getelementptr inbounds [2 x ptr], ptr %99, i64 0, i64 1
  %101 = load ptr, ptr %100, align 8
  %102 = icmp ne ptr %101, null
  br i1 %102, label %103, label %220

103:                                              ; preds = %98
  %104 = getelementptr inbounds %class.State, ptr %7, i32 0, i32 4
  %105 = getelementptr inbounds [2 x ptr], ptr %104, i64 0, i64 1
  %106 = load ptr, ptr %105, align 8
  %107 = getelementptr inbounds %class.State, ptr %106, i32 0, i32 1
  %108 = getelementptr inbounds [315 x i16], ptr %107, i64 0, i64 79
  %109 = load i16, ptr %108, align 2
  %110 = zext i16 %109 to i32
  %111 = and i32 %110, 1
  %112 = icmp ne i32 %111, 0
  br i1 %112, label %113, label %220

113:                                              ; preds = %103
  %114 = load i32, ptr @UseAVX, align 4
  %115 = icmp sgt i32 %114, 0
  br i1 %115, label %116, label %220

116:                                              ; preds = %113
  %117 = load ptr, ptr %4, align 8
  %118 = call noundef zeroext i1 @_ZN15VLoopReductions12is_reductionEPK4Node(ptr noundef %117)
  br i1 %118, label %220, label %119

119:                                              ; preds = %116
  %120 = getelementptr inbounds %class.State, ptr %7, i32 0, i32 4
  %121 = getelementptr inbounds [2 x ptr], ptr %120, i64 0, i64 0
  %122 = load ptr, ptr %121, align 8
  %123 = getelementptr inbounds %class.State, ptr %122, i32 0, i32 0
  %124 = getelementptr inbounds [315 x i32], ptr %123, i64 0, i64 79
  %125 = load i32, ptr %124, align 4
  %126 = getelementptr inbounds %class.State, ptr %7, i32 0, i32 4
  %127 = getelementptr inbounds [2 x ptr], ptr %126, i64 0, i64 1
  %128 = load ptr, ptr %127, align 8
  %129 = getelementptr inbounds %class.State, ptr %128, i32 0, i32 0
  %130 = getelementptr inbounds [315 x i32], ptr %129, i64 0, i64 79
  %131 = load i32, ptr %130, align 4
  %132 = add i32 %125, %131
  %133 = add i32 %132, 100
  store i32 %133, ptr %6, align 4
  %134 = getelementptr inbounds %class.State, ptr %7, i32 0, i32 1
  %135 = getelementptr inbounds [315 x i16], ptr %134, i64 0, i64 79
  %136 = load i16, ptr %135, align 2
  %137 = zext i16 %136 to i32
  %138 = and i32 %137, 1
  %139 = icmp eq i32 %138, 0
  br i1 %139, label %146, label %140

140:                                              ; preds = %119
  %141 = getelementptr inbounds %class.State, ptr %7, i32 0, i32 0
  %142 = getelementptr inbounds [315 x i32], ptr %141, i64 0, i64 79
  %143 = load i32, ptr %142, align 4
  %144 = load i32, ptr %6, align 4
  %145 = icmp ugt i32 %143, %144
  br i1 %145, label %146, label %152

146:                                              ; preds = %140, %119
  %147 = load i32, ptr %6, align 4
  %148 = getelementptr inbounds %class.State, ptr %7, i32 0, i32 0
  %149 = getelementptr inbounds [315 x i32], ptr %148, i64 0, i64 79
  store i32 %147, ptr %149, align 4
  %150 = getelementptr inbounds %class.State, ptr %7, i32 0, i32 1
  %151 = getelementptr inbounds [315 x i16], ptr %150, i64 0, i64 79
  store i16 1169, ptr %151, align 2
  br label %152

152:                                              ; preds = %146, %140
  %153 = getelementptr inbounds %class.State, ptr %7, i32 0, i32 1
  %154 = getelementptr inbounds [315 x i16], ptr %153, i64 0, i64 78
  %155 = load i16, ptr %154, align 4
  %156 = zext i16 %155 to i32
  %157 = and i32 %156, 1
  %158 = icmp eq i32 %157, 0
  br i1 %158, label %166, label %159

159:                                              ; preds = %152
  %160 = getelementptr inbounds %class.State, ptr %7, i32 0, i32 0
  %161 = getelementptr inbounds [315 x i32], ptr %160, i64 0, i64 78
  %162 = load i32, ptr %161, align 8
  %163 = load i32, ptr %6, align 4
  %164 = add i32 %163, 100
  %165 = icmp ugt i32 %162, %164
  br i1 %165, label %166, label %173

166:                                              ; preds = %159, %152
  %167 = load i32, ptr %6, align 4
  %168 = add i32 %167, 100
  %169 = getelementptr inbounds %class.State, ptr %7, i32 0, i32 0
  %170 = getelementptr inbounds [315 x i32], ptr %169, i64 0, i64 78
  store i32 %168, ptr %170, align 8
  %171 = getelementptr inbounds %class.State, ptr %7, i32 0, i32 1
  %172 = getelementptr inbounds [315 x i16], ptr %171, i64 0, i64 78
  store i16 647, ptr %172, align 4
  br label %173

173:                                              ; preds = %166, %159
  %174 = getelementptr inbounds %class.State, ptr %7, i32 0, i32 1
  %175 = getelementptr inbounds [315 x i16], ptr %174, i64 0, i64 80
  %176 = load i16, ptr %175, align 4
  %177 = zext i16 %176 to i32
  %178 = and i32 %177, 1
  %179 = icmp eq i32 %178, 0
  br i1 %179, label %188, label %180

180:                                              ; preds = %173
  %181 = getelementptr inbounds %class.State, ptr %7, i32 0, i32 0
  %182 = getelementptr inbounds [315 x i32], ptr %181, i64 0, i64 80
  %183 = load i32, ptr %182, align 8
  %184 = load i32, ptr %6, align 4
  %185 = add i32 %184, 100
  %186 = add i32 %185, 100
  %187 = icmp ugt i32 %183, %186
  br i1 %187, label %188, label %196

188:                                              ; preds = %180, %173
  %189 = load i32, ptr %6, align 4
  %190 = add i32 %189, 100
  %191 = add i32 %190, 100
  %192 = getelementptr inbounds %class.State, ptr %7, i32 0, i32 0
  %193 = getelementptr inbounds [315 x i32], ptr %192, i64 0, i64 80
  store i32 %191, ptr %193, align 8
  %194 = getelementptr inbounds %class.State, ptr %7, i32 0, i32 1
  %195 = getelementptr inbounds [315 x i16], ptr %194, i64 0, i64 80
  store i16 641, ptr %195, align 4
  br label %196

196:                                              ; preds = %188, %180
  %197 = getelementptr inbounds %class.State, ptr %7, i32 0, i32 1
  %198 = getelementptr inbounds [315 x i16], ptr %197, i64 0, i64 106
  %199 = load i16, ptr %198, align 4
  %200 = zext i16 %199 to i32
  %201 = and i32 %200, 1
  %202 = icmp eq i32 %201, 0
  br i1 %202, label %211, label %203

203:                                              ; preds = %196
  %204 = getelementptr inbounds %class.State, ptr %7, i32 0, i32 0
  %205 = getelementptr inbounds [315 x i32], ptr %204, i64 0, i64 106
  %206 = load i32, ptr %205, align 8
  %207 = load i32, ptr %6, align 4
  %208 = add i32 %207, 100
  %209 = add i32 %208, 95
  %210 = icmp ugt i32 %206, %209
  br i1 %210, label %211, label %219

211:                                              ; preds = %203, %196
  %212 = load i32, ptr %6, align 4
  %213 = add i32 %212, 100
  %214 = add i32 %213, 95
  %215 = getelementptr inbounds %class.State, ptr %7, i32 0, i32 0
  %216 = getelementptr inbounds [315 x i32], ptr %215, i64 0, i64 106
  store i32 %214, ptr %216, align 8
  %217 = getelementptr inbounds %class.State, ptr %7, i32 0, i32 1
  %218 = getelementptr inbounds [315 x i16], ptr %217, i64 0, i64 106
  store i16 637, ptr %218, align 4
  br label %219

219:                                              ; preds = %211, %203
  br label %220

220:                                              ; preds = %219, %116, %113, %103, %98, %88, %83
  ret void
}