; Function Attrs: mustprogress nounwind uwtable
define hidden void @_ZN5State12_sub_Op_MinFEPK4Node(ptr nocapture noundef nonnull align 8 dereferenceable(1920) %0, ptr noundef %1) local_unnamed_addr #2 align 2 {
  %3 = getelementptr inbounds i8, ptr %0, i64 1904
  %4 = load ptr, ptr %3, align 8
  %.not = icmp eq ptr %4, null
  br i1 %.not, label %.thread, label %5

5:                                                ; preds = %2
  %6 = getelementptr inbounds i8, ptr %4, i64 1418
  %7 = load i16, ptr %6, align 2
  %8 = and i16 %7, 1
  %.not20 = icmp eq i16 %8, 0
  br i1 %.not20, label %.thread36, label %9

9:                                                ; preds = %5
  %10 = getelementptr inbounds i8, ptr %0, i64 1912
  %11 = load ptr, ptr %10, align 8
  %.not21 = icmp eq ptr %11, null
  br i1 %.not21, label %.thread36, label %12

12:                                               ; preds = %9
  %13 = getelementptr inbounds i8, ptr %11, i64 1418
  %14 = load i16, ptr %13, align 2
  %15 = and i16 %14, 1
  %16 = icmp ne i16 %15, 0
  %17 = load i32, ptr @UseAVX, align 4
  %18 = icmp sgt i32 %17, 0
  %or.cond = select i1 %16, i1 %18, i1 false
  br i1 %or.cond, label %19, label %.thread36

19:                                               ; preds = %12
  %20 = tail call noundef zeroext i1 @_ZN15VLoopReductions12is_reductionEPK4Node(ptr noundef %1) #9
  %.pr.pre = load ptr, ptr %3, align 8
  br i1 %20, label %21, label %40

21:                                               ; preds = %19
  %22 = getelementptr inbounds i8, ptr %.pr.pre, i64 316
  %23 = load i32, ptr %22, align 4
  %24 = load ptr, ptr %10, align 8
  %25 = getelementptr inbounds i8, ptr %24, i64 316
  %26 = load i32, ptr %25, align 4
  %27 = add i32 %26, %23
  %28 = add i32 %27, 100
  %29 = getelementptr inbounds i8, ptr %0, i64 316
  store i32 %28, ptr %29, align 4
  %30 = getelementptr inbounds i8, ptr %0, i64 1418
  store i16 1171, ptr %30, align 2
  %31 = add i32 %27, 200
  %32 = getelementptr inbounds i8, ptr %0, i64 312
  store i32 %31, ptr %32, align 8
  %33 = getelementptr inbounds i8, ptr %0, i64 1416
  store i16 647, ptr %33, align 8
  %34 = add i32 %27, 300
  %35 = getelementptr inbounds i8, ptr %0, i64 320
  store i32 %34, ptr %35, align 8
  %36 = getelementptr inbounds i8, ptr %0, i64 1420
  store i16 641, ptr %36, align 4
  %37 = add i32 %27, 295
  %38 = getelementptr inbounds i8, ptr %0, i64 424
  store i32 %37, ptr %38, align 8
  %39 = getelementptr inbounds i8, ptr %0, i64 1472
  store i16 637, ptr %39, align 8
  br label %.thread36

40:                                               ; preds = %19
  %.not22 = icmp eq ptr %.pr.pre, null
  br i1 %.not22, label %.thread, label %.thread36

.thread36:                                        ; preds = %5, %9, %12, %21, %40
  %.pr39 = phi ptr [ %.pr.pre, %40 ], [ %4, %5 ], [ %4, %9 ], [ %4, %12 ], [ %.pr.pre, %21 ]
  %41 = getelementptr inbounds i8, ptr %.pr39, i64 1418
  %42 = load i16, ptr %41, align 2
  %43 = and i16 %42, 1
  %.not23 = icmp eq i16 %43, 0
  br i1 %.not23, label %.thread, label %44

44:                                               ; preds = %.thread36
  %45 = getelementptr inbounds i8, ptr %0, i64 1912
  %46 = load ptr, ptr %45, align 8
  %.not24 = icmp eq ptr %46, null
  br i1 %.not24, label %.thread, label %47

47:                                               ; preds = %44
  %48 = getelementptr inbounds i8, ptr %46, i64 1418
  %49 = load i16, ptr %48, align 2
  %50 = and i16 %49, 1
  %51 = icmp ne i16 %50, 0
  %52 = load i32, ptr @UseAVX, align 4
  %53 = icmp sgt i32 %52, 0
  %or.cond3 = select i1 %51, i1 %53, i1 false
  br i1 %or.cond3, label %54, label %.thread

54:                                               ; preds = %47
  %55 = tail call noundef zeroext i1 @_ZN15VLoopReductions12is_reductionEPK4Node(ptr noundef %1) #9
  br i1 %55, label %.thread, label %56

56:                                               ; preds = %54
  %57 = load ptr, ptr %3, align 8
  %58 = getelementptr inbounds i8, ptr %57, i64 316
  %59 = load i32, ptr %58, align 4
  %60 = load ptr, ptr %45, align 8
  %61 = getelementptr inbounds i8, ptr %60, i64 316
  %62 = load i32, ptr %61, align 4
  %63 = add i32 %62, %59
  %64 = add i32 %63, 100
  %65 = getelementptr inbounds i8, ptr %0, i64 1418
  %66 = load i16, ptr %65, align 2
  %67 = and i16 %66, 1
  %68 = icmp eq i16 %67, 0
  %69 = getelementptr inbounds i8, ptr %0, i64 316
  %70 = load i32, ptr %69, align 4
  %71 = icmp ugt i32 %70, %64
  %or.cond27 = select i1 %68, i1 true, i1 %71
  br i1 %or.cond27, label %72, label %73

72:                                               ; preds = %56
  store i32 %64, ptr %69, align 4
  store i16 1169, ptr %65, align 2
  br label %73

73:                                               ; preds = %56, %72
  %74 = getelementptr inbounds i8, ptr %0, i64 1416
  %75 = load i16, ptr %74, align 8
  %76 = and i16 %75, 1
  %77 = icmp eq i16 %76, 0
  br i1 %77, label %._crit_edge31, label %78

._crit_edge31:                                    ; preds = %73
  %.pre = add i32 %63, 200
  br label %83

78:                                               ; preds = %73
  %79 = getelementptr inbounds i8, ptr %0, i64 312
  %80 = load i32, ptr %79, align 8
  %81 = add i32 %63, 200
  %82 = icmp ugt i32 %80, %81
  br i1 %82, label %83, label %85

83:                                               ; preds = %._crit_edge31, %78
  %.pre-phi = phi i32 [ %.pre, %._crit_edge31 ], [ %81, %78 ]
  %84 = getelementptr inbounds i8, ptr %0, i64 312
  store i32 %.pre-phi, ptr %84, align 8
  store i16 647, ptr %74, align 8
  br label %85

85:                                               ; preds = %83, %78
  %86 = getelementptr inbounds i8, ptr %0, i64 1420
  %87 = load i16, ptr %86, align 4
  %88 = and i16 %87, 1
  %89 = icmp eq i16 %88, 0
  br i1 %89, label %._crit_edge30, label %90

._crit_edge30:                                    ; preds = %85
  %.pre32 = add i32 %63, 300
  br label %95

90:                                               ; preds = %85
  %91 = getelementptr inbounds i8, ptr %0, i64 320
  %92 = load i32, ptr %91, align 8
  %93 = add i32 %63, 300
  %94 = icmp ugt i32 %92, %93
  br i1 %94, label %95, label %97

95:                                               ; preds = %._crit_edge30, %90
  %.pre-phi33 = phi i32 [ %.pre32, %._crit_edge30 ], [ %93, %90 ]
  %96 = getelementptr inbounds i8, ptr %0, i64 320
  store i32 %.pre-phi33, ptr %96, align 8
  store i16 641, ptr %86, align 4
  br label %97

97:                                               ; preds = %95, %90
  %98 = getelementptr inbounds i8, ptr %0, i64 1472
  %99 = load i16, ptr %98, align 8
  %100 = and i16 %99, 1
  %101 = icmp eq i16 %100, 0
  br i1 %101, label %._crit_edge, label %102

._crit_edge:                                      ; preds = %97
  %.pre34 = add i32 %63, 295
  br label %107

102:                                              ; preds = %97
  %103 = getelementptr inbounds i8, ptr %0, i64 424
  %104 = load i32, ptr %103, align 8
  %105 = add i32 %63, 295
  %106 = icmp ugt i32 %104, %105
  br i1 %106, label %107, label %.thread

107:                                              ; preds = %._crit_edge, %102
  %.pre-phi35 = phi i32 [ %.pre34, %._crit_edge ], [ %105, %102 ]
  %108 = getelementptr inbounds i8, ptr %0, i64 424
  store i32 %.pre-phi35, ptr %108, align 8
  store i16 637, ptr %98, align 8
  br label %.thread

.thread:                                          ; preds = %2, %102, %107, %54, %47, %44, %.thread36, %40
  ret void
}